target datalayout = "e-m:e-p270:32:32-p271:32:32-p272:64:64-i64:64-i128:128-f80:128-n8:16:32:64-S128"
target triple = "x86_64-pc-linux-gnu"

@.str = private unnamed_addr constant [17 x i8] c" 000000000000\1000\00", align 1
@.str.1 = private unnamed_addr constant [17 x i8] c"\00\00\00\00\00\00\00\00\1E\0F\0F\0F\00\00\00\00\00", align 1

; Function Attrs: mustprogress uwtable
define noundef signext i8 @_ZN6icu_7710GreekUpper23isFollowedByCasedLetterEPKhii(ptr noundef %0, i32 noundef %1, i32 noundef %2) #1 {
  %4 = alloca i8, align 1
  %5 = alloca ptr, align 8
  %6 = alloca i32, align 4
  %7 = alloca i32, align 4
  %8 = alloca i32, align 4
  %9 = alloca i8, align 1
  %10 = alloca i32, align 4
  %11 = alloca i32, align 4
  store ptr %0, ptr %5, align 8, !tbaa !17
  store i32 %1, ptr %6, align 4, !tbaa !14
  store i32 %2, ptr %7, align 4, !tbaa !14
  br label %12

12:                                               ; preds = %157, %3
  %13 = load i32, ptr %6, align 4, !tbaa !14
  %14 = load i32, ptr %7, align 4, !tbaa !14
  %15 = icmp slt i32 %13, %14
  br i1 %15, label %16, label %158

16:                                               ; preds = %12
  call void @llvm.lifetime.start.p0(i64 4, ptr %8) #12
  br label %17

17:                                               ; preds = %16
  %18 = load ptr, ptr %5, align 8, !tbaa !17
  %19 = load i32, ptr %6, align 4, !tbaa !14
  %20 = add nsw i32 %19, 1
  store i32 %20, ptr %6, align 4, !tbaa !14
  %21 = sext i32 %19 to i64
  %22 = getelementptr inbounds i8, ptr %18, i64 %21
  %23 = load i8, ptr %22, align 1, !tbaa !30
  %24 = zext i8 %23 to i32
  store i32 %24, ptr %8, align 4, !tbaa !14
  %25 = load i32, ptr %8, align 4, !tbaa !14
  %26 = and i32 %25, 128
  %27 = icmp eq i32 %26, 0
  br i1 %27, label %140, label %28

28:                                               ; preds = %17
  call void @llvm.lifetime.start.p0(i64 1, ptr %9) #12
  store i8 0, ptr %9, align 1, !tbaa !30
  %29 = load i32, ptr %6, align 4, !tbaa !14
  %30 = load i32, ptr %7, align 4, !tbaa !14
  %31 = icmp ne i32 %29, %30
  br i1 %31, label %32, label %138

32:                                               ; preds = %28
  %33 = load i32, ptr %8, align 4, !tbaa !14
  %34 = icmp sge i32 %33, 224
  br i1 %34, label %35, label %112

35:                                               ; preds = %32
  %36 = load i32, ptr %8, align 4, !tbaa !14
  %37 = icmp slt i32 %36, 240
  br i1 %37, label %38, label %60

38:                                               ; preds = %35
  %39 = load i32, ptr %8, align 4, !tbaa !14
  %40 = and i32 %39, 15
  store i32 %40, ptr %8, align 4, !tbaa !14
  %41 = sext i32 %40 to i64
  %42 = getelementptr inbounds [17 x i8], ptr @.str, i64 0, i64 %41
  %43 = load i8, ptr %42, align 1, !tbaa !30
  %44 = sext i8 %43 to i32
  %45 = load ptr, ptr %5, align 8, !tbaa !17
  %46 = load i32, ptr %6, align 4, !tbaa !14
  %47 = sext i32 %46 to i64
  %48 = getelementptr inbounds i8, ptr %45, i64 %47
  %49 = load i8, ptr %48, align 1, !tbaa !30
  store i8 %49, ptr %9, align 1, !tbaa !30
  %50 = zext i8 %49 to i32
  %51 = ashr i32 %50, 5
  %52 = shl i32 1, %51
  %53 = and i32 %44, %52
  %54 = icmp ne i32 %53, 0
  br i1 %54, label %55, label %138

55:                                               ; preds = %38
  %56 = load i8, ptr %9, align 1, !tbaa !30
  %57 = zext i8 %56 to i32
  %58 = and i32 %57, 63
  %59 = trunc i32 %58 to i8
  store i8 %59, ptr %9, align 1, !tbaa !30
  br i1 true, label %102, label %138

60:                                               ; preds = %35
  %61 = load i32, ptr %8, align 4, !tbaa !14
  %62 = sub nsw i32 %61, 240
  store i32 %62, ptr %8, align 4, !tbaa !14
  %63 = icmp sle i32 %62, 4
  br i1 %63, label %64, label %138

64:                                               ; preds = %60
  %65 = load ptr, ptr %5, align 8, !tbaa !17
  %66 = load i32, ptr %6, align 4, !tbaa !14
  %67 = sext i32 %66 to i64
  %68 = getelementptr inbounds i8, ptr %65, i64 %67
  %69 = load i8, ptr %68, align 1, !tbaa !30
  store i8 %69, ptr %9, align 1, !tbaa !30
  %70 = zext i8 %69 to i32
  %71 = ashr i32 %70, 4
  %72 = sext i32 %71 to i64
  %73 = getelementptr inbounds [17 x i8], ptr @.str.1, i64 0, i64 %72
  %74 = load i8, ptr %73, align 1, !tbaa !30
  %75 = sext i8 %74 to i32
  %76 = load i32, ptr %8, align 4, !tbaa !14
  %77 = shl i32 1, %76
  %78 = and i32 %75, %77
  %79 = icmp ne i32 %78, 0
  br i1 %79, label %80, label %138

80:                                               ; preds = %64
  %81 = load i32, ptr %8, align 4, !tbaa !14
  %82 = shl i32 %81, 6
  %83 = load i8, ptr %9, align 1, !tbaa !30
  %84 = zext i8 %83 to i32
  %85 = and i32 %84, 63
  %86 = or i32 %82, %85
  store i32 %86, ptr %8, align 4, !tbaa !14
  %87 = load i32, ptr %6, align 4, !tbaa !14
  %88 = add nsw i32 %87, 1
  store i32 %88, ptr %6, align 4, !tbaa !14
  %89 = load i32, ptr %7, align 4, !tbaa !14
  %90 = icmp ne i32 %88, %89
  br i1 %90, label %91, label %138

91:                                               ; preds = %80
  %92 = load ptr, ptr %5, align 8, !tbaa !17
  %93 = load i32, ptr %6, align 4, !tbaa !14
  %94 = sext i32 %93 to i64
  %95 = getelementptr inbounds i8, ptr %92, i64 %94
  %96 = load i8, ptr %95, align 1, !tbaa !30
  %97 = zext i8 %96 to i32
  %98 = sub nsw i32 %97, 128
  %99 = trunc i32 %98 to i8
  store i8 %99, ptr %9, align 1, !tbaa !30
  %100 = zext i8 %99 to i32
  %101 = icmp sle i32 %100, 63
  br i1 %101, label %102, label %138

102:                                              ; preds = %91, %55
  %103 = load i32, ptr %8, align 4, !tbaa !14
  %104 = shl i32 %103, 6
  %105 = load i8, ptr %9, align 1, !tbaa !30
  %106 = zext i8 %105 to i32
  %107 = or i32 %104, %106
  store i32 %107, ptr %8, align 4, !tbaa !14
  %108 = load i32, ptr %6, align 4, !tbaa !14
  %109 = add nsw i32 %108, 1
  store i32 %109, ptr %6, align 4, !tbaa !14
  %110 = load i32, ptr %7, align 4, !tbaa !14
  %111 = icmp ne i32 %109, %110
  br i1 %111, label %118, label %138

112:                                              ; preds = %32
  %113 = load i32, ptr %8, align 4, !tbaa !14
  %114 = icmp sge i32 %113, 194
  br i1 %114, label %115, label %138

115:                                              ; preds = %112
  %116 = load i32, ptr %8, align 4, !tbaa !14
  %117 = and i32 %116, 31
  store i32 %117, ptr %8, align 4, !tbaa !14
  br i1 true, label %118, label %138

118:                                              ; preds = %115, %102
  %119 = load ptr, ptr %5, align 8, !tbaa !17
  %120 = load i32, ptr %6, align 4, !tbaa !14
  %121 = sext i32 %120 to i64
  %122 = getelementptr inbounds i8, ptr %119, i64 %121
  %123 = load i8, ptr %122, align 1, !tbaa !30
  %124 = zext i8 %123 to i32
  %125 = sub nsw i32 %124, 128
  %126 = trunc i32 %125 to i8
  store i8 %126, ptr %9, align 1, !tbaa !30
  %127 = zext i8 %126 to i32
  %128 = icmp sle i32 %127, 63
  br i1 %128, label %129, label %138

129:                                              ; preds = %118
  %130 = load i32, ptr %8, align 4, !tbaa !14
  %131 = shl i32 %130, 6
  %132 = load i8, ptr %9, align 1, !tbaa !30
  %133 = zext i8 %132 to i32
  %134 = or i32 %131, %133
  store i32 %134, ptr %8, align 4, !tbaa !14
  %135 = load i32, ptr %6, align 4, !tbaa !14
  %136 = add nsw i32 %135, 1
  store i32 %136, ptr %6, align 4, !tbaa !14
  br i1 true, label %137, label %138

137:                                              ; preds = %129
  br label %139

138:                                              ; preds = %129, %118, %115, %112, %102, %91, %80, %64, %60, %55, %38, %28
  store i32 -1, ptr %8, align 4, !tbaa !14
  br label %139

139:                                              ; preds = %138, %137
  call void @llvm.lifetime.end.p0(i64 1, ptr %9) #12
  br label %140

140:                                              ; preds = %139, %17
  br label %141

141:                                              ; preds = %140
  br label %142

142:                                              ; preds = %141
  call void @llvm.lifetime.start.p0(i64 4, ptr %10) #12
  %143 = load i32, ptr %8, align 4, !tbaa !14
  %144 = call i32 @ucase_getTypeOrIgnorable_77(i32 noundef %143)
  store i32 %144, ptr %10, align 4, !tbaa !14
  %145 = load i32, ptr %10, align 4, !tbaa !14
  %146 = and i32 %145, 4
  %147 = icmp ne i32 %146, 0
  br i1 %147, label %148, label %149

148:                                              ; preds = %142
  br label %154

149:                                              ; preds = %142
  %150 = load i32, ptr %10, align 4, !tbaa !14
  %151 = icmp ne i32 %150, 0
  br i1 %151, label %152, label %153

152:                                              ; preds = %149
  store i8 1, ptr %4, align 1
  store i32 1, ptr %11, align 4
  br label %155

153:                                              ; preds = %149
  store i8 0, ptr %4, align 1
  store i32 1, ptr %11, align 4
  br label %155

154:                                              ; preds = %148
  store i32 0, ptr %11, align 4
  br label %155

155:                                              ; preds = %154, %153, %152
  call void @llvm.lifetime.end.p0(i64 4, ptr %10) #12
  call void @llvm.lifetime.end.p0(i64 4, ptr %8) #12
  %156 = load i32, ptr %11, align 4
  switch i32 %156, label %161 [
    i32 0, label %157
    i32 1, label %159
  ]

157:                                              ; preds = %155
  br label %12, !llvm.loop !70

158:                                              ; preds = %12
  store i8 0, ptr %4, align 1
  br label %159

159:                                              ; preds = %158, %155
  %160 = load i8, ptr %4, align 1
  ret i8 %160

161:                                              ; preds = %155
  unreachable
}