; Function Attrs: mustprogress uwtable
define noundef signext range(i8 0, 2) i8 @_ZN6icu_7710GreekUpper23isFollowedByCasedLetterEPKhii(ptr noundef readonly captures(none) %0, i32 noundef %1, i32 noundef %2) local_unnamed_addr #1 {
  br label %4

4:                                                ; preds = %79, %3
  %.043 = phi i32 [ %1, %3 ], [ %.5, %79 ]
  %5 = icmp slt i32 %.043, %2
  br i1 %5, label %6, label %.split.loop.exit64

6:                                                ; preds = %4
  %7 = add nsw i32 %.043, 1
  %8 = sext i32 %.043 to i64
  %9 = getelementptr inbounds i8, ptr %0, i64 %8
  %10 = load i8, ptr %9, align 1, !tbaa !20
  %11 = zext i8 %10 to i32
  %12 = icmp sgt i8 %10, -1
  br i1 %12, label %79, label %13

13:                                               ; preds = %6
  %.not = icmp eq i32 %7, %2
  br i1 %.not, label %79, label %14

14:                                               ; preds = %13
  %15 = icmp samesign ugt i8 %10, -33
  br i1 %15, label %16, label %64

16:                                               ; preds = %14
  %17 = icmp samesign ult i8 %10, -16
  br i1 %17, label %18, label %33

18:                                               ; preds = %16
  %19 = and i32 %11, 15
  %20 = zext nneg i32 %19 to i64
  %21 = getelementptr inbounds nuw [17 x i8], ptr @.str, i64 0, i64 %20
  %22 = load i8, ptr %21, align 1, !tbaa !20
  %23 = zext i8 %22 to i32
  %24 = sext i32 %7 to i64
  %25 = getelementptr inbounds i8, ptr %0, i64 %24
  %26 = load i8, ptr %25, align 1, !tbaa !20
  %27 = lshr i8 %26, 5
  %28 = zext nneg i8 %27 to i32
  %29 = shl nuw nsw i32 1, %28
  %30 = and i32 %29, %23
  %.not60 = icmp eq i32 %30, 0
  br i1 %.not60, label %79, label %31

31:                                               ; preds = %18
  %32 = and i8 %26, 63
  br label %59

33:                                               ; preds = %16
  %34 = add nsw i32 %11, -240
  %35 = icmp samesign ult i8 %10, -11
  br i1 %35, label %36, label %79

36:                                               ; preds = %33
  %37 = sext i32 %7 to i64
  %38 = getelementptr inbounds i8, ptr %0, i64 %37
  %39 = load i8, ptr %38, align 1, !tbaa !20
  %40 = zext i8 %39 to i32
  %41 = lshr i32 %40, 4
  %42 = zext nneg i32 %41 to i64
  %43 = getelementptr inbounds nuw [17 x i8], ptr @.str.1, i64 0, i64 %42
  %44 = load i8, ptr %43, align 1, !tbaa !20
  %45 = sext i8 %44 to i32
  %46 = shl nuw nsw i32 1, %34
  %47 = and i32 %46, %45
  %.not58 = icmp eq i32 %47, 0
  br i1 %.not58, label %79, label %48

48:                                               ; preds = %36
  %49 = add nsw i32 %.043, 2
  %.not59 = icmp eq i32 %49, %2
  br i1 %.not59, label %79, label %50

50:                                               ; preds = %48
  %51 = shl nuw nsw i32 %34, 6
  %52 = and i32 %40, 63
  %53 = or disjoint i32 %52, %51
  %54 = sext i32 %49 to i64
  %55 = getelementptr inbounds i8, ptr %0, i64 %54
  %56 = load i8, ptr %55, align 1, !tbaa !20
  %57 = xor i8 %56, -128
  %58 = icmp ult i8 %57, 64
  br i1 %58, label %59, label %79

59:                                               ; preds = %31, %50
  %.245 = phi i32 [ %7, %31 ], [ %49, %50 ]
  %.040 = phi i32 [ %19, %31 ], [ %53, %50 ]
  %.039 = phi i8 [ %32, %31 ], [ %57, %50 ]
  %60 = shl nuw nsw i32 %.040, 6
  %61 = zext nneg i8 %.039 to i32
  %62 = or disjoint i32 %60, %61
  %63 = add nsw i32 %.245, 1
  %.not61 = icmp eq i32 %63, %2
  br i1 %.not61, label %79, label %68

64:                                               ; preds = %14
  %65 = icmp samesign ugt i8 %10, -63
  br i1 %65, label %66, label %79

66:                                               ; preds = %64
  %67 = and i32 %11, 31
  br label %68

68:                                               ; preds = %66, %59
  %.346 = phi i32 [ %63, %59 ], [ %7, %66 ]
  %.141 = phi i32 [ %62, %59 ], [ %67, %66 ]
  %69 = sext i32 %.346 to i64
  %70 = getelementptr inbounds i8, ptr %0, i64 %69
  %71 = load i8, ptr %70, align 1, !tbaa !20
  %72 = xor i8 %71, -128
  %73 = icmp ult i8 %72, 64
  br i1 %73, label %74, label %79

74:                                               ; preds = %68
  %75 = zext nneg i8 %72 to i32
  %76 = shl nuw nsw i32 %.141, 6
  %77 = or disjoint i32 %76, %75
  %78 = add nsw i32 %.346, 1
  br label %79

79:                                               ; preds = %74, %68, %64, %59, %50, %48, %36, %33, %18, %13, %6
  %.5 = phi i32 [ %7, %6 ], [ %78, %74 ], [ %.346, %68 ], [ %2, %59 ], [ %7, %18 ], [ %49, %50 ], [ %2, %48 ], [ %7, %36 ], [ %7, %33 ], [ %7, %64 ], [ %2, %13 ]
  %.3 = phi i32 [ %11, %6 ], [ %77, %74 ], [ -1, %68 ], [ -1, %59 ], [ -1, %18 ], [ -1, %50 ], [ -1, %48 ], [ -1, %36 ], [ -1, %33 ], [ -1, %64 ], [ -1, %13 ]
  %80 = tail call i32 @ucase_getTypeOrIgnorable_77(i32 noundef %.3)
  %81 = and i32 %80, 4
  %.not62.not = icmp eq i32 %81, 0
  br i1 %.not62.not, label %.split.loop.exit, label %4

.split.loop.exit:                                 ; preds = %79
  %.not63.le = icmp ne i32 %80, 0
  %..le = zext i1 %.not63.le to i8
  br label %.split.loop.exit64

.split.loop.exit64:                               ; preds = %4, %.split.loop.exit
  %.2 = phi i8 [ %..le, %.split.loop.exit ], [ 0, %4 ]
  ret i8 %.2
}